; ModuleID = 'bench/openssl/original/apps_shims.ll'
source_filename = "bench/openssl/original/apps_shims.ll"
target datalayout = "e-m:e-p270:32:32-p271:32:32-p272:64:64-i64:64-i128:128-f80:128-n8:16:32:64-S128"
target triple = "x86_64-pc-linux-gnu"

@.str = private unnamed_addr constant [38 x i8] c"../openssl/test/testutil/apps_shims.c\00", align 1
@.str.1 = private unnamed_addr constant [24 x i8] c"vp = OPENSSL_malloc(sz)\00", align 1
@.str.2 = private unnamed_addr constant [37 x i8] c"Could not allocate %zu bytes for %s\0A\00", align 1

; Function Attrs: nounwind uwtable
define noundef ptr @app_malloc(i64 noundef %0, ptr noundef %1) local_unnamed_addr #0 {
  %3 = tail call noalias ptr @CRYPTO_malloc(i64 noundef %0, ptr noundef nonnull @.str, i32 noundef 25) #4
  %4 = tail call i32 @test_ptr(ptr noundef nonnull @.str, i32 noundef 25, ptr noundef nonnull @.str.1, ptr noundef %3) #4
  %.not = icmp eq i32 %4, 0
  br i1 %.not, label %5, label %6

5:                                                ; preds = %2
  tail call void (ptr, i32, ptr, ...) @test_info(ptr noundef nonnull @.str, i32 noundef 26, ptr noundef nonnull @.str.2, i64 noundef %0, ptr noundef %1) #4
  tail call void @abort() #5
  unreachable

6:                                                ; preds = %2
  ret ptr %3
}

declare i32 @test_ptr(ptr noundef, i32 noundef, ptr noundef, ptr noundef) local_unnamed_addr #1

declare noalias ptr @CRYPTO_malloc(i64 noundef, ptr noundef, i32 noundef) local_unnamed_addr #1

declare void @test_info(ptr noundef, i32 noundef, ptr noundef, ...) local_unnamed_addr #1

; Function Attrs: cold nofree noreturn nounwind
declare void @abort() local_unnamed_addr #2

; Function Attrs: mustprogress nofree norecurse nosync nounwind willreturn memory(none) uwtable
define noundef i32 @opt_legacy_okay() local_unnamed_addr #3 {
  ret i32 1
}

; Function Attrs: mustprogress nofree norecurse nosync nounwind willreturn memory(none) uwtable
define noundef i32 @opt_provider_option_given() local_unnamed_addr #3 {
  ret i32 0
}

; Function Attrs: mustprogress nofree norecurse nosync nounwind willreturn memory(none) uwtable
define noalias noundef ptr @app_get0_propq() local_unnamed_addr #3 {
  ret ptr null
}

; Function Attrs: mustprogress nofree norecurse nosync nounwind willreturn memory(none) uwtable
define noalias noundef ptr @app_get0_libctx() local_unnamed_addr #3 {
  ret ptr null
}


!llvm.module.flags = !{!0, !1, !2}

!0 = !{i32 1, !"wchar_size", i32 4}
!1 = !{i32 8, !"PIC Level", i32 2}
!2 = !{i32 7, !"uwtable", i32 2}
